target datalayout = "e-m:e-p270:32:32-p271:32:32-p272:64:64-i64:64-i128:128-f80:128-n8:16:32:64-S128"
target triple = "x86_64-unknown-linux-gnu"

%class.ptr_vector = type { %class.vector }
%class.vector = type { ptr }
%class.svector = type { %class.vector.0 }
%class.vector.0 = type { ptr }
%"class.smt::theory" = type <{ ptr, i32, [4 x i8], ptr, ptr, %class.ptr_vector, %class.svector, i32, i8, [3 x i8] }>

; Function Attrs: mustprogress uwtable
define hidden void @_ZN3smt10theory_fpa17attach_new_th_varEPNS_5enodeE(ptr noundef nonnull align 8 dereferenceable(1584) %this, ptr noundef %n) #5 align 2 {
entry:
  %this.addr = alloca ptr, align 8
  %n.addr = alloca ptr, align 8
  %v = alloca i32, align 4
  store ptr %this, ptr %this.addr, align 8
  store ptr %n, ptr %n.addr, align 8
  %this1 = load ptr, ptr %this.addr, align 8
  %0 = load ptr, ptr %n.addr, align 8
  %vtable = load ptr, ptr %this1, align 8
  %vfn = getelementptr inbounds ptr, ptr %vtable, i64 0
  %1 = load ptr, ptr %vfn, align 8
  %call = call noundef i32 %1(ptr noundef nonnull align 8 dereferenceable(53) %this1, ptr noundef %0)
  store i32 %call, ptr %v, align 4
  %ctx = getelementptr inbounds %"class.smt::theory", ptr %this1, i32 0, i32 3
  %2 = load ptr, ptr %ctx, align 8
  %3 = load ptr, ptr %n.addr, align 8
  %4 = load i32, ptr %v, align 4
  call void @_ZN3smt7context13attach_th_varEPNS_5enodeEPNS_6theoryEi(ptr noundef nonnull align 8 dereferenceable(11616) %2, ptr noundef %3, ptr noundef %this1, i32 noundef %4)
  ret void
}