; Function Attrs: mustprogress uwtable
define hidden void @_ZN3smt10theory_fpa17attach_new_th_varEPNS_5enodeE(ptr noundef nonnull align 8 dereferenceable(1584) %this, ptr noundef %n) local_unnamed_addr #3 align 2 {
entry:
  %vtable = load ptr, ptr %this, align 8
  %0 = load ptr, ptr %vtable, align 8
  %call = tail call noundef i32 %0(ptr noundef nonnull align 8 dereferenceable(53) %this, ptr noundef %n)
  %ctx = getelementptr inbounds i8, ptr %this, i64 16
  %1 = load ptr, ptr %ctx, align 8
  tail call void @_ZN3smt7context13attach_th_varEPNS_5enodeEPNS_6theoryEi(ptr noundef nonnull align 8 dereferenceable(11616) %1, ptr noundef %n, ptr noundef nonnull %this, i32 noundef %call)
  ret void
}